; Function Attrs: mustprogress nofree norecurse nosync nounwind willreturn memory(argmem: read) uwtable
define zeroext i1 @lv_indev_get_press_moved(ptr noundef readonly captures(address_is_null) %0) local_unnamed_addr #6 {
  %2 = icmp eq ptr %0, null
  br i1 %2, label %8, label %3

3:                                                ; preds = %1
  %4 = getelementptr inbounds nuw i8, ptr %0, i64 228
  %5 = load i16, ptr %4, align 4
  %6 = and i16 %5, 512
  %7 = icmp ne i16 %6, 0
  br label %8

8:                                                ; preds = %1, %3
  %.0 = phi i1 [ %7, %3 ], [ false, %1 ]
  ret i1 %.0
}